; Function Attrs: nounwind uwtable
define i32 @dtgtk_gradient_slider_is_dragging(ptr noundef readonly %0) local_unnamed_addr #0 {
  %.not = icmp eq ptr %0, null
  br i1 %.not, label %2, label %3, !prof !45

2:                                                ; preds = %1
  tail call void @g_return_if_fail_warning(ptr noundef null, ptr noundef nonnull @__func__.dtgtk_gradient_slider_is_dragging, ptr noundef nonnull @.str.1) #14
  br label %6

3:                                                ; preds = %1
  %4 = getelementptr inbounds nuw i8, ptr %0, i64 312
  %5 = load i32, ptr %4, align 8, !tbaa !30
  br label %6

6:                                                ; preds = %3, %2
  %.0 = phi i32 [ %5, %3 ], [ 0, %2 ]
  ret i32 %.0
}